; Function Attrs: mustprogress uwtable
define void @_ZNK6casadi8Variable3dotERKNS_18DaeBuilderInternalE(ptr dead_on_unwind noalias writable sret(%"class.casadi::MX") align 8 %0, ptr noundef nonnull align 8 dereferenceable(408) %1, ptr noundef nonnull readonly align 8 captures(none) dereferenceable(1017) %2) local_unnamed_addr #4 align 2 {
  %4 = getelementptr inbounds nuw i8, ptr %1, i64 116
  %5 = load i32, ptr %4, align 4, !tbaa !98
  %6 = icmp eq i32 %5, 5
  br i1 %6, label %7, label %8

7:                                                ; preds = %3
  tail call void @_ZN6casadi2MXC1Ed(ptr noundef nonnull align 8 dereferenceable(8) %0, double noundef 1.000000e+00)
  br label %29

8:                                                ; preds = %3
  %9 = getelementptr inbounds nuw i8, ptr %1, i64 120
  %10 = load i32, ptr %9, align 8, !tbaa !99
  %.not.i = icmp eq i32 %10, 4
  %switch.selectcmp.case2.i = icmp ne i32 %5, 2
  %or.cond = and i1 %switch.selectcmp.case2.i, %.not.i
  br i1 %or.cond, label %11, label %_ZNK6casadi8Variable9needs_derEv.exit.thread

11:                                               ; preds = %8
  %12 = getelementptr inbounds nuw i8, ptr %1, i64 264
  %13 = load i64, ptr %12, align 8, !tbaa !187
  %14 = getelementptr inbounds nuw i8, ptr %2, i64 552
  %15 = getelementptr inbounds nuw i8, ptr %2, i64 560
  %16 = load ptr, ptr %15, align 8, !tbaa !145
  %17 = load ptr, ptr %14, align 8, !tbaa !148
  %18 = ptrtoint ptr %16 to i64
  %19 = ptrtoint ptr %17 to i64
  %20 = sub i64 %18, %19
  %21 = ashr exact i64 %20, 3
  %.not.i.i.i = icmp ult i64 %13, %21
  br i1 %.not.i.i.i, label %_ZNK6casadi18DaeBuilderInternal8variableEm.exit, label %22

22:                                               ; preds = %11
  tail call void (ptr, ...) @_ZSt24__throw_out_of_range_fmtPKcz(ptr noundef nonnull @.str.690, i64 noundef %13, i64 noundef %21) #29
  unreachable

_ZNK6casadi18DaeBuilderInternal8variableEm.exit:  ; preds = %11
  %23 = getelementptr inbounds nuw ptr, ptr %17, i64 %13
  %24 = load ptr, ptr %23, align 8, !tbaa !149
  %25 = getelementptr inbounds nuw i8, ptr %24, i64 384
  %26 = load ptr, ptr %25, align 8, !tbaa !188
  store ptr %26, ptr %0, align 8, !tbaa !188
  tail call void @_ZN6casadi13GenericSharedINS_12SharedObjectENS_20SharedObjectInternalEE8count_upEv(ptr noundef nonnull align 8 dereferenceable(8) %0)
  br label %29

_ZNK6casadi8Variable9needs_derEv.exit.thread:     ; preds = %8
  %27 = getelementptr inbounds nuw i8, ptr %1, i64 384
  %28 = tail call noundef nonnull align 8 dereferenceable(8) ptr @_ZNK6casadi2MX8sparsityEv(ptr noundef nonnull align 8 dereferenceable(8) %27)
  tail call void @_ZN6casadi2MXC1ERKNS_8SparsityEdb(ptr noundef nonnull align 8 dereferenceable(8) %0, ptr noundef nonnull align 8 dereferenceable(8) %28, double noundef 0.000000e+00, i1 noundef zeroext false)
  br label %29

29:                                               ; preds = %_ZNK6casadi8Variable9needs_derEv.exit.thread, %_ZNK6casadi18DaeBuilderInternal8variableEm.exit, %7
  ret void
}